target datalayout = "e-m:e-p270:32:32-p271:32:32-p272:64:64-i64:64-i128:128-f80:128-n8:16:32:64-S128"
target triple = "x86_64-pc-linux-gnu"

@.str.16 = private unnamed_addr constant [14 x i8] c"map_stats.txt\00", align 1
@.str.17 = private unnamed_addr constant [3 x i8] c"a+\00", align 1
@.str.18 = private unnamed_addr constant [4 x i8] c"%s \00", align 1
@.str.19 = private unnamed_addr constant [7 x i8] c"%4.2f \00", align 1
@.str.20 = private unnamed_addr constant [7 x i8] c"%4.2f\0A\00", align 1

; Function Attrs: nounwind uwtable
define void @Map_ManPrintStatsToFile(ptr noundef %0, float noundef %1, float noundef %2, i64 noundef %3) #0 {
  %5 = alloca ptr, align 8
  %6 = alloca float, align 4
  %7 = alloca float, align 4
  %8 = alloca i64, align 8
  %9 = alloca ptr, align 8
  store ptr %0, ptr %5, align 8, !tbaa !71
  store float %1, ptr %6, align 4, !tbaa !52
  store float %2, ptr %7, align 4, !tbaa !52
  store i64 %3, ptr %8, align 8, !tbaa !131
  call void @llvm.lifetime.start.p0(i64 8, ptr %9) #12
  %10 = call noalias ptr @fopen(ptr noundef @.str.16, ptr noundef @.str.17)
  store ptr %10, ptr %9, align 8, !tbaa !129
  %11 = load ptr, ptr %9, align 8, !tbaa !129
  %12 = load ptr, ptr %5, align 8, !tbaa !71
  %13 = call i32 (ptr, ptr, ...) @fprintf(ptr noundef %11, ptr noundef @.str.18, ptr noundef %12) #12
  %14 = load ptr, ptr %9, align 8, !tbaa !129
  %15 = load float, ptr %6, align 4, !tbaa !52
  %16 = fpext float %15 to double
  %17 = call i32 (ptr, ptr, ...) @fprintf(ptr noundef %14, ptr noundef @.str.19, double noundef %16) #12
  %18 = load ptr, ptr %9, align 8, !tbaa !129
  %19 = load float, ptr %7, align 4, !tbaa !52
  %20 = fpext float %19 to double
  %21 = call i32 (ptr, ptr, ...) @fprintf(ptr noundef %18, ptr noundef @.str.19, double noundef %20) #12
  %22 = load ptr, ptr %9, align 8, !tbaa !129
  %23 = load i64, ptr %8, align 8, !tbaa !131
  %24 = sitofp i64 %23 to float
  %25 = fdiv float %24, 1.000000e+06
  %26 = fpext float %25 to double
  %27 = call i32 (ptr, ptr, ...) @fprintf(ptr noundef %22, ptr noundef @.str.20, double noundef %26) #12
  %28 = load ptr, ptr %9, align 8, !tbaa !129
  %29 = call i32 @fclose(ptr noundef %28)
  call void @llvm.lifetime.end.p0(i64 8, ptr %9) #12
  ret void
}