; Function Attrs: nofree nounwind uwtable
define void @Map_ManPrintStatsToFile(ptr noundef %0, float noundef %1, float noundef %2, i64 noundef %3) local_unnamed_addr #14 {
  %5 = tail call noalias ptr @fopen(ptr noundef nonnull @.str.16, ptr noundef nonnull @.str.17)
  %6 = tail call i32 (ptr, ptr, ...) @fprintf(ptr noundef %5, ptr noundef nonnull @.str.18, ptr noundef %0) #23
  %7 = fpext float %1 to double
  %8 = tail call i32 (ptr, ptr, ...) @fprintf(ptr noundef %5, ptr noundef nonnull @.str.19, double noundef %7) #23
  %9 = fpext float %2 to double
  %10 = tail call i32 (ptr, ptr, ...) @fprintf(ptr noundef %5, ptr noundef nonnull @.str.19, double noundef %9) #23
  %11 = sitofp i64 %3 to float
  %12 = fdiv float %11, 1.000000e+06
  %13 = fpext float %12 to double
  %14 = tail call i32 (ptr, ptr, ...) @fprintf(ptr noundef %5, ptr noundef nonnull @.str.20, double noundef %13) #23
  %15 = tail call i32 @fclose(ptr noundef %5)
  ret void
}